ARM GAS  C:\tmp\cc3X0CVP.s 			page 1


   1              		.syntax unified
   2              		.cpu cortex-m0
   3              		.fpu softvfp
   4              		.eabi_attribute 20, 1
   5              		.eabi_attribute 21, 1
   6              		.eabi_attribute 23, 3
   7              		.eabi_attribute 24, 1
   8              		.eabi_attribute 25, 1
   9              		.eabi_attribute 26, 1
  10              		.eabi_attribute 30, 1
  11              		.eabi_attribute 34, 0
  12              		.eabi_attribute 18, 4
  13              		.thumb
  14              		.syntax unified
  15              		.file	"main.c"
  16              		.text
  17              	.Ltext0:
  18              		.cfi_sections	.debug_frame
  19              		.section	.text.byte_to_binary_string,"ax",%progbits
  20              		.align	2
  21              		.global	byte_to_binary_string
  22              		.code	16
  23              		.thumb_func
  24              		.type	byte_to_binary_string, %function
  25              	byte_to_binary_string:
  26              	.LFB36:
  27              		.file 1 "main.c"
   1:main.c        **** #include "project.h"
   2:main.c        **** #include <stdio.h>
   3:main.c        **** #include <stdbool.h>
   4:main.c        **** #include <stdint.h>
   5:main.c        **** 
   6:main.c        **** #define TEST_DATA_START 0x00
   7:main.c        **** #define TEST_DATA_END   0xFF
   8:main.c        **** 
   9:main.c        **** #define START_DELAY_US  10UL       
  10:main.c        **** #define DELAY_STEP_US   1UL        
  11:main.c        **** #define MIN_DELAY_US    0UL        
  12:main.c        **** 
  13:main.c        **** void report_error(void);
  14:main.c        **** void report_OK(void);
  15:main.c        **** void byte_to_binary_string(uint8_t data, char* output);
  16:main.c        **** void print_byte_hex(uint8_t data, const char* label);
  17:main.c        **** void report_test_status(bool passed, const char* message);
  18:main.c        **** 
  19:main.c        **** void pulse_shift_clock(int bit_index, uint8_t bit_value); 
  20:main.c        **** void pulse_latch_clock(void);
  21:main.c        **** void shift_byte_and_report(uint8_t data);
  22:main.c        **** uint8_t read_parallel_output(void);
  23:main.c        **** 
  24:main.c        **** void pulse_shift_clock_fast(uint8_t bit_value, uint32_t delay_us); 
  25:main.c        **** void shift_byte_software_speed_test(uint8_t data, uint32_t delay_us);
  26:main.c        **** uint8_t read_parallel_output_fast(void);
  27:main.c        **** void pulse_latch_clock_fast(void);
  28:main.c        **** 
  29:main.c        **** 
  30:main.c        **** void byte_to_binary_string(uint8_t data, char* output) {
ARM GAS  C:\tmp\cc3X0CVP.s 			page 2


  28              		.loc 1 30 0
  29              		.cfi_startproc
  30              		@ args = 0, pretend = 0, frame = 0
  31              		@ frame_needed = 0, uses_anonymous_args = 0
  32              	.LVL0:
  33 0000 30B5     		push	{r4, r5, lr}
  34              		.cfi_def_cfa_offset 12
  35              		.cfi_offset 4, -12
  36              		.cfi_offset 5, -8
  37              		.cfi_offset 14, -4
  38              	.LVL1:
  39              	.LBB2:
  31:main.c        ****     for (int i = 0; i < 8; i++) {
  40              		.loc 1 31 0
  41 0002 0023     		movs	r3, #0
  42 0004 0CE0     		b	.L2
  43              	.LVL2:
  44              	.L4:
  32:main.c        ****         output[i] = (data & (1 << (7 - i))) ? '1' : '0';
  45              		.loc 1 32 0
  46 0006 CC18     		adds	r4, r1, r3
  47 0008 0722     		movs	r2, #7
  48 000a D21A     		subs	r2, r2, r3
  49 000c 0500     		movs	r5, r0
  50 000e 1541     		asrs	r5, r5, r2
  51 0010 2A00     		movs	r2, r5
  52 0012 D207     		lsls	r2, r2, #31
  53 0014 01D5     		bpl	.L5
  54 0016 3122     		movs	r2, #49
  55 0018 00E0     		b	.L3
  56              	.L5:
  57 001a 3022     		movs	r2, #48
  58              	.L3:
  59              		.loc 1 32 0 is_stmt 0 discriminator 4
  60 001c 2270     		strb	r2, [r4]
  31:main.c        ****     for (int i = 0; i < 8; i++) {
  61              		.loc 1 31 0 is_stmt 1 discriminator 4
  62 001e 0133     		adds	r3, r3, #1
  63              	.LVL3:
  64              	.L2:
  31:main.c        ****     for (int i = 0; i < 8; i++) {
  65              		.loc 1 31 0 is_stmt 0 discriminator 2
  66 0020 072B     		cmp	r3, #7
  67 0022 F0DD     		ble	.L4
  68              	.LBE2:
  33:main.c        ****     }
  34:main.c        ****     output[8] = '\0';
  69              		.loc 1 34 0 is_stmt 1
  70 0024 0023     		movs	r3, #0
  71              	.LVL4:
  72 0026 0B72     		strb	r3, [r1, #8]
  35:main.c        **** }
  73              		.loc 1 35 0
  74              		@ sp needed
  75 0028 30BD     		pop	{r4, r5, pc}
  76              		.cfi_endproc
  77              	.LFE36:
ARM GAS  C:\tmp\cc3X0CVP.s 			page 3


  78              		.size	byte_to_binary_string, .-byte_to_binary_string
  79 002a C046     		.section	.text.print_byte_hex,"ax",%progbits
  80              		.align	2
  81              		.global	print_byte_hex
  82              		.code	16
  83              		.thumb_func
  84              		.type	print_byte_hex, %function
  85              	print_byte_hex:
  86              	.LFB37:
  36:main.c        **** 
  37:main.c        **** void print_byte_hex(uint8_t data, const char* label) {
  87              		.loc 1 37 0
  88              		.cfi_startproc
  89              		@ args = 0, pretend = 0, frame = 72
  90              		@ frame_needed = 0, uses_anonymous_args = 0
  91              	.LVL5:
  92 0000 70B5     		push	{r4, r5, r6, lr}
  93              		.cfi_def_cfa_offset 16
  94              		.cfi_offset 4, -16
  95              		.cfi_offset 5, -12
  96              		.cfi_offset 6, -8
  97              		.cfi_offset 14, -4
  98 0002 94B0     		sub	sp, sp, #80
  99              		.cfi_def_cfa_offset 96
 100 0004 0400     		movs	r4, r0
 101 0006 0E00     		movs	r6, r1
  38:main.c        ****     char str_buf[60];
  39:main.c        ****     char bin_buf[9];
  40:main.c        ****     byte_to_binary_string(data, bin_buf);
 102              		.loc 1 40 0
 103 0008 02AD     		add	r5, sp, #8
 104 000a 2900     		movs	r1, r5
 105              	.LVL6:
 106 000c FFF7FEFF 		bl	byte_to_binary_string
 107              	.LVL7:
  41:main.c        ****     sprintf(str_buf, "%s: 0x%02X (BIN: %s)\r\n", label, data, bin_buf);
 108              		.loc 1 41 0
 109 0010 0095     		str	r5, [sp]
 110 0012 2300     		movs	r3, r4
 111 0014 3200     		movs	r2, r6
 112 0016 0449     		ldr	r1, .L7
 113 0018 05A8     		add	r0, sp, #20
 114 001a FFF7FEFF 		bl	sprintf
 115              	.LVL8:
  42:main.c        ****     UART_1_UartPutString(str_buf);
 116              		.loc 1 42 0
 117 001e 05A8     		add	r0, sp, #20
 118 0020 FFF7FEFF 		bl	UART_1_UartPutString
 119              	.LVL9:
  43:main.c        **** }
 120              		.loc 1 43 0
 121 0024 14B0     		add	sp, sp, #80
 122              		@ sp needed
 123              	.LVL10:
 124 0026 70BD     		pop	{r4, r5, r6, pc}
 125              	.L8:
 126              		.align	2
ARM GAS  C:\tmp\cc3X0CVP.s 			page 4


 127              	.L7:
 128 0028 00000000 		.word	.LC0
 129              		.cfi_endproc
 130              	.LFE37:
 131              		.size	print_byte_hex, .-print_byte_hex
 132              		.section	.text.report_error,"ax",%progbits
 133              		.align	2
 134              		.global	report_error
 135              		.code	16
 136              		.thumb_func
 137              		.type	report_error, %function
 138              	report_error:
 139              	.LFB38:
  44:main.c        **** 
  45:main.c        **** void report_error(void) {
 140              		.loc 1 45 0
 141              		.cfi_startproc
 142              		@ args = 0, pretend = 0, frame = 0
 143              		@ frame_needed = 0, uses_anonymous_args = 0
 144 0000 10B5     		push	{r4, lr}
 145              		.cfi_def_cfa_offset 8
 146              		.cfi_offset 4, -8
 147              		.cfi_offset 14, -4
  46:main.c        ****     LED_ERROR_Write(0);
 148              		.loc 1 46 0
 149 0002 0020     		movs	r0, #0
 150 0004 FFF7FEFF 		bl	LED_ERROR_Write
 151              	.LVL11:
  47:main.c        ****     LED_OK_Write(1);
 152              		.loc 1 47 0
 153 0008 0120     		movs	r0, #1
 154 000a FFF7FEFF 		bl	LED_OK_Write
 155              	.LVL12:
  48:main.c        **** }
 156              		.loc 1 48 0
 157              		@ sp needed
 158 000e 10BD     		pop	{r4, pc}
 159              		.cfi_endproc
 160              	.LFE38:
 161              		.size	report_error, .-report_error
 162              		.section	.text.report_OK,"ax",%progbits
 163              		.align	2
 164              		.global	report_OK
 165              		.code	16
 166              		.thumb_func
 167              		.type	report_OK, %function
 168              	report_OK:
 169              	.LFB39:
  49:main.c        **** 
  50:main.c        **** void report_OK(void) {
 170              		.loc 1 50 0
 171              		.cfi_startproc
 172              		@ args = 0, pretend = 0, frame = 0
 173              		@ frame_needed = 0, uses_anonymous_args = 0
 174 0000 10B5     		push	{r4, lr}
 175              		.cfi_def_cfa_offset 8
 176              		.cfi_offset 4, -8
ARM GAS  C:\tmp\cc3X0CVP.s 			page 5


 177              		.cfi_offset 14, -4
  51:main.c        ****     LED_ERROR_Write(1);
 178              		.loc 1 51 0
 179 0002 0120     		movs	r0, #1
 180 0004 FFF7FEFF 		bl	LED_ERROR_Write
 181              	.LVL13:
  52:main.c        ****     LED_OK_Write(0);
 182              		.loc 1 52 0
 183 0008 0020     		movs	r0, #0
 184 000a FFF7FEFF 		bl	LED_OK_Write
 185              	.LVL14:
  53:main.c        **** }
 186              		.loc 1 53 0
 187              		@ sp needed
 188 000e 10BD     		pop	{r4, pc}
 189              		.cfi_endproc
 190              	.LFE39:
 191              		.size	report_OK, .-report_OK
 192              		.section	.text.report_test_status,"ax",%progbits
 193              		.align	2
 194              		.global	report_test_status
 195              		.code	16
 196              		.thumb_func
 197              		.type	report_test_status, %function
 198              	report_test_status:
 199              	.LFB40:
  54:main.c        **** 
  55:main.c        **** void report_test_status(bool passed, const char* message) {
 200              		.loc 1 55 0
 201              		.cfi_startproc
 202              		@ args = 0, pretend = 0, frame = 0
 203              		@ frame_needed = 0, uses_anonymous_args = 0
 204              	.LVL15:
 205 0000 10B5     		push	{r4, lr}
 206              		.cfi_def_cfa_offset 8
 207              		.cfi_offset 4, -8
 208              		.cfi_offset 14, -4
 209 0002 0C00     		movs	r4, r1
  56:main.c        ****     if (passed) {
 210              		.loc 1 56 0
 211 0004 0028     		cmp	r0, #0
 212 0006 05D0     		beq	.L12
  57:main.c        ****         UART_1_UartPutString("\r\n*** SUCCESS: ");
 213              		.loc 1 57 0
 214 0008 0848     		ldr	r0, .L14
 215              	.LVL16:
 216 000a FFF7FEFF 		bl	UART_1_UartPutString
 217              	.LVL17:
  58:main.c        ****         report_OK();
 218              		.loc 1 58 0
 219 000e FFF7FEFF 		bl	report_OK
 220              	.LVL18:
 221 0012 04E0     		b	.L13
 222              	.LVL19:
 223              	.L12:
  59:main.c        ****     } else {
  60:main.c        ****         UART_1_UartPutString("\r\n!!! FAILURE: ");
ARM GAS  C:\tmp\cc3X0CVP.s 			page 6


 224              		.loc 1 60 0
 225 0014 0648     		ldr	r0, .L14+4
 226              	.LVL20:
 227 0016 FFF7FEFF 		bl	UART_1_UartPutString
 228              	.LVL21:
  61:main.c        ****         report_error();
 229              		.loc 1 61 0
 230 001a FFF7FEFF 		bl	report_error
 231              	.LVL22:
 232              	.L13:
  62:main.c        ****     }
  63:main.c        ****     UART_1_UartPutString(message);
 233              		.loc 1 63 0
 234 001e 2000     		movs	r0, r4
 235 0020 FFF7FEFF 		bl	UART_1_UartPutString
 236              	.LVL23:
  64:main.c        ****     UART_1_UartPutString(" ***\r\n");
 237              		.loc 1 64 0
 238 0024 0348     		ldr	r0, .L14+8
 239 0026 FFF7FEFF 		bl	UART_1_UartPutString
 240              	.LVL24:
  65:main.c        **** }
 241              		.loc 1 65 0
 242              		@ sp needed
 243              	.LVL25:
 244 002a 10BD     		pop	{r4, pc}
 245              	.L15:
 246              		.align	2
 247              	.L14:
 248 002c 18000000 		.word	.LC2
 249 0030 28000000 		.word	.LC4
 250 0034 38000000 		.word	.LC6
 251              		.cfi_endproc
 252              	.LFE40:
 253              		.size	report_test_status, .-report_test_status
 254              		.section	.text.pulse_shift_clock,"ax",%progbits
 255              		.align	2
 256              		.global	pulse_shift_clock
 257              		.code	16
 258              		.thumb_func
 259              		.type	pulse_shift_clock, %function
 260              	pulse_shift_clock:
 261              	.LFB41:
  66:main.c        **** 
  67:main.c        **** void pulse_shift_clock(int bit_index, uint8_t bit_value) {
 262              		.loc 1 67 0
 263              		.cfi_startproc
 264              		@ args = 0, pretend = 0, frame = 56
 265              		@ frame_needed = 0, uses_anonymous_args = 0
 266              	.LVL26:
 267 0000 00B5     		push	{lr}
 268              		.cfi_def_cfa_offset 4
 269              		.cfi_offset 14, -4
 270 0002 8FB0     		sub	sp, sp, #60
 271              		.cfi_def_cfa_offset 64
 272 0004 0200     		movs	r2, r0
 273 0006 0B00     		movs	r3, r1
ARM GAS  C:\tmp\cc3X0CVP.s 			page 7


  68:main.c        ****     char str_buf[50];
  69:main.c        ****     sprintf(str_buf, "  >> SHCP Pulse (Shifting Bit %d, Value %d)\r\n", bit_index, bit_value);
 274              		.loc 1 69 0
 275 0008 0849     		ldr	r1, .L17
 276              	.LVL27:
 277 000a 01A8     		add	r0, sp, #4
 278              	.LVL28:
 279 000c FFF7FEFF 		bl	sprintf
 280              	.LVL29:
  70:main.c        ****     UART_1_UartPutString(str_buf);
 281              		.loc 1 70 0
 282 0010 01A8     		add	r0, sp, #4
 283 0012 FFF7FEFF 		bl	UART_1_UartPutString
 284              	.LVL30:
  71:main.c        **** 
  72:main.c        ****     SHCP_Pin_Write(0);
 285              		.loc 1 72 0
 286 0016 0020     		movs	r0, #0
 287 0018 FFF7FEFF 		bl	SHCP_Pin_Write
 288              	.LVL31:
  73:main.c        ****     //CyDelayUs(1);
  74:main.c        ****     SHCP_Pin_Write(1);
 289              		.loc 1 74 0
 290 001c 0120     		movs	r0, #1
 291 001e FFF7FEFF 		bl	SHCP_Pin_Write
 292              	.LVL32:
  75:main.c        ****     //CyDelayUs(1);
  76:main.c        ****     SHCP_Pin_Write(0);
 293              		.loc 1 76 0
 294 0022 0020     		movs	r0, #0
 295 0024 FFF7FEFF 		bl	SHCP_Pin_Write
 296              	.LVL33:
  77:main.c        **** }
 297              		.loc 1 77 0
 298 0028 0FB0     		add	sp, sp, #60
 299              		@ sp needed
 300 002a 00BD     		pop	{pc}
 301              	.L18:
 302              		.align	2
 303              	.L17:
 304 002c 40000000 		.word	.LC8
 305              		.cfi_endproc
 306              	.LFE41:
 307              		.size	pulse_shift_clock, .-pulse_shift_clock
 308              		.section	.text.pulse_shift_clock_fast,"ax",%progbits
 309              		.align	2
 310              		.global	pulse_shift_clock_fast
 311              		.code	16
 312              		.thumb_func
 313              		.type	pulse_shift_clock_fast, %function
 314              	pulse_shift_clock_fast:
 315              	.LFB42:
  78:main.c        **** 
  79:main.c        **** void pulse_shift_clock_fast(uint8_t bit_value, uint32_t delay_us) {
 316              		.loc 1 79 0
 317              		.cfi_startproc
 318              		@ args = 0, pretend = 0, frame = 0
ARM GAS  C:\tmp\cc3X0CVP.s 			page 8


 319              		@ frame_needed = 0, uses_anonymous_args = 0
 320              	.LVL34:
 321 0000 10B5     		push	{r4, lr}
 322              		.cfi_def_cfa_offset 8
 323              		.cfi_offset 4, -8
 324              		.cfi_offset 14, -4
  80:main.c        ****     DS_Pin_Write(bit_value); // Встановлюємо біт перед імпульсом
 325              		.loc 1 80 0
 326 0002 FFF7FEFF 		bl	DS_Pin_Write
 327              	.LVL35:
  81:main.c        ****     
  82:main.c        ****     SHCP_Pin_Write(0);
 328              		.loc 1 82 0
 329 0006 0020     		movs	r0, #0
 330 0008 FFF7FEFF 		bl	SHCP_Pin_Write
 331              	.LVL36:
  83:main.c        ****     //if (delay_us > 0) CyDelayUs(delay_us);
  84:main.c        ****     
  85:main.c        ****     SHCP_Pin_Write(1);
 332              		.loc 1 85 0
 333 000c 0120     		movs	r0, #1
 334 000e FFF7FEFF 		bl	SHCP_Pin_Write
 335              	.LVL37:
  86:main.c        ****     //if (delay_us > 0) CyDelayUs(delay_us);
  87:main.c        ****     
  88:main.c        ****     SHCP_Pin_Write(0);
 336              		.loc 1 88 0
 337 0012 0020     		movs	r0, #0
 338 0014 FFF7FEFF 		bl	SHCP_Pin_Write
 339              	.LVL38:
  89:main.c        **** }
 340              		.loc 1 89 0
 341              		@ sp needed
 342 0018 10BD     		pop	{r4, pc}
 343              		.cfi_endproc
 344              	.LFE42:
 345              		.size	pulse_shift_clock_fast, .-pulse_shift_clock_fast
 346 001a C046     		.section	.text.pulse_latch_clock,"ax",%progbits
 347              		.align	2
 348              		.global	pulse_latch_clock
 349              		.code	16
 350              		.thumb_func
 351              		.type	pulse_latch_clock, %function
 352              	pulse_latch_clock:
 353              	.LFB43:
  90:main.c        **** 
  91:main.c        **** void pulse_latch_clock(void) {
 354              		.loc 1 91 0
 355              		.cfi_startproc
 356              		@ args = 0, pretend = 0, frame = 0
 357              		@ frame_needed = 0, uses_anonymous_args = 0
 358 0000 10B5     		push	{r4, lr}
 359              		.cfi_def_cfa_offset 8
 360              		.cfi_offset 4, -8
 361              		.cfi_offset 14, -4
  92:main.c        ****     UART_1_UartPutString("--- RCLK Pulse (Latch: Data Transfer to Output) ---\r\n");
 362              		.loc 1 92 0
ARM GAS  C:\tmp\cc3X0CVP.s 			page 9


 363 0002 0648     		ldr	r0, .L21
 364 0004 FFF7FEFF 		bl	UART_1_UartPutString
 365              	.LVL39:
  93:main.c        ****     STCP_Pin_Write(0);
 366              		.loc 1 93 0
 367 0008 0020     		movs	r0, #0
 368 000a FFF7FEFF 		bl	STCP_Pin_Write
 369              	.LVL40:
  94:main.c        ****     //CyDelayUs(10);
  95:main.c        ****     STCP_Pin_Write(1);
 370              		.loc 1 95 0
 371 000e 0120     		movs	r0, #1
 372 0010 FFF7FEFF 		bl	STCP_Pin_Write
 373              	.LVL41:
  96:main.c        ****     //CyDelayUs(10);
  97:main.c        ****     STCP_Pin_Write(0);
 374              		.loc 1 97 0
 375 0014 0020     		movs	r0, #0
 376 0016 FFF7FEFF 		bl	STCP_Pin_Write
 377              	.LVL42:
  98:main.c        **** }
 378              		.loc 1 98 0
 379              		@ sp needed
 380 001a 10BD     		pop	{r4, pc}
 381              	.L22:
 382              		.align	2
 383              	.L21:
 384 001c 70000000 		.word	.LC10
 385              		.cfi_endproc
 386              	.LFE43:
 387              		.size	pulse_latch_clock, .-pulse_latch_clock
 388              		.section	.text.pulse_latch_clock_fast,"ax",%progbits
 389              		.align	2
 390              		.global	pulse_latch_clock_fast
 391              		.code	16
 392              		.thumb_func
 393              		.type	pulse_latch_clock_fast, %function
 394              	pulse_latch_clock_fast:
 395              	.LFB44:
  99:main.c        **** 
 100:main.c        **** void pulse_latch_clock_fast(void) {
 396              		.loc 1 100 0
 397              		.cfi_startproc
 398              		@ args = 0, pretend = 0, frame = 0
 399              		@ frame_needed = 0, uses_anonymous_args = 0
 400 0000 10B5     		push	{r4, lr}
 401              		.cfi_def_cfa_offset 8
 402              		.cfi_offset 4, -8
 403              		.cfi_offset 14, -4
 101:main.c        ****     STCP_Pin_Write(0);
 404              		.loc 1 101 0
 405 0002 0020     		movs	r0, #0
 406 0004 FFF7FEFF 		bl	STCP_Pin_Write
 407              	.LVL43:
 102:main.c        ****     STCP_Pin_Write(1);
 408              		.loc 1 102 0
 409 0008 0120     		movs	r0, #1
ARM GAS  C:\tmp\cc3X0CVP.s 			page 10


 410 000a FFF7FEFF 		bl	STCP_Pin_Write
 411              	.LVL44:
 103:main.c        ****     STCP_Pin_Write(0);
 412              		.loc 1 103 0
 413 000e 0020     		movs	r0, #0
 414 0010 FFF7FEFF 		bl	STCP_Pin_Write
 415              	.LVL45:
 104:main.c        **** }
 416              		.loc 1 104 0
 417              		@ sp needed
 418 0014 10BD     		pop	{r4, pc}
 419              		.cfi_endproc
 420              	.LFE44:
 421              		.size	pulse_latch_clock_fast, .-pulse_latch_clock_fast
 422 0016 C046     		.section	.text.shift_byte_and_report,"ax",%progbits
 423              		.align	2
 424              		.global	shift_byte_and_report
 425              		.code	16
 426              		.thumb_func
 427              		.type	shift_byte_and_report, %function
 428              	shift_byte_and_report:
 429              	.LFB45:
 105:main.c        **** 
 106:main.c        **** void shift_byte_and_report(uint8_t data) {
 430              		.loc 1 106 0
 431              		.cfi_startproc
 432              		@ args = 0, pretend = 0, frame = 0
 433              		@ frame_needed = 0, uses_anonymous_args = 0
 434              	.LVL46:
 435 0000 F8B5     		push	{r3, r4, r5, r6, r7, lr}
 436              		.cfi_def_cfa_offset 24
 437              		.cfi_offset 3, -24
 438              		.cfi_offset 4, -20
 439              		.cfi_offset 5, -16
 440              		.cfi_offset 6, -12
 441              		.cfi_offset 7, -8
 442              		.cfi_offset 14, -4
 443 0002 0700     		movs	r7, r0
 107:main.c        ****     print_byte_hex(data, "INPUT Data (SER)");
 444              		.loc 1 107 0
 445 0004 0A49     		ldr	r1, .L27
 446 0006 FFF7FEFF 		bl	print_byte_hex
 447              	.LVL47:
 448              	.LBB3:
 108:main.c        ****     for (int i = 0; i < 8; i++) {
 449              		.loc 1 108 0
 450 000a 0026     		movs	r6, #0
 451 000c 0DE0     		b	.L25
 452              	.LVL48:
 453              	.L26:
 454              	.LBB4:
 109:main.c        ****         uint8_t bit = (data >> (7 - i)) & 0x01;
 455              		.loc 1 109 0 discriminator 3
 456 000e 0724     		movs	r4, #7
 457 0010 A41B     		subs	r4, r4, r6
 458 0012 3B00     		movs	r3, r7
 459 0014 2341     		asrs	r3, r3, r4
ARM GAS  C:\tmp\cc3X0CVP.s 			page 11


 460 0016 0125     		movs	r5, #1
 461 0018 1D40     		ands	r5, r3
 462              	.LVL49:
 110:main.c        ****         DS_Pin_Write(bit);
 463              		.loc 1 110 0 discriminator 3
 464 001a 2800     		movs	r0, r5
 465 001c FFF7FEFF 		bl	DS_Pin_Write
 466              	.LVL50:
 111:main.c        ****         pulse_shift_clock(7 - i, bit);
 467              		.loc 1 111 0 discriminator 3
 468 0020 2900     		movs	r1, r5
 469 0022 2000     		movs	r0, r4
 470 0024 FFF7FEFF 		bl	pulse_shift_clock
 471              	.LVL51:
 472              	.LBE4:
 108:main.c        ****         uint8_t bit = (data >> (7 - i)) & 0x01;
 473              		.loc 1 108 0 discriminator 3
 474 0028 0136     		adds	r6, r6, #1
 475              	.LVL52:
 476              	.L25:
 108:main.c        ****         uint8_t bit = (data >> (7 - i)) & 0x01;
 477              		.loc 1 108 0 is_stmt 0 discriminator 1
 478 002a 072E     		cmp	r6, #7
 479 002c EFDD     		ble	.L26
 480              	.LBE3:
 112:main.c        ****     }
 113:main.c        **** }
 481              		.loc 1 113 0 is_stmt 1
 482              		@ sp needed
 483              	.LVL53:
 484 002e F8BD     		pop	{r3, r4, r5, r6, r7, pc}
 485              	.L28:
 486              		.align	2
 487              	.L27:
 488 0030 A8000000 		.word	.LC12
 489              		.cfi_endproc
 490              	.LFE45:
 491              		.size	shift_byte_and_report, .-shift_byte_and_report
 492              		.section	.text.shift_byte_software_speed_test,"ax",%progbits
 493              		.align	2
 494              		.global	shift_byte_software_speed_test
 495              		.code	16
 496              		.thumb_func
 497              		.type	shift_byte_software_speed_test, %function
 498              	shift_byte_software_speed_test:
 499              	.LFB46:
 114:main.c        **** 
 115:main.c        **** void shift_byte_software_speed_test(uint8_t data, uint32_t delay_us) {
 500              		.loc 1 115 0
 501              		.cfi_startproc
 502              		@ args = 0, pretend = 0, frame = 0
 503              		@ frame_needed = 0, uses_anonymous_args = 0
 504              	.LVL54:
 505 0000 70B5     		push	{r4, r5, r6, lr}
 506              		.cfi_def_cfa_offset 16
 507              		.cfi_offset 4, -16
 508              		.cfi_offset 5, -12
ARM GAS  C:\tmp\cc3X0CVP.s 			page 12


 509              		.cfi_offset 6, -8
 510              		.cfi_offset 14, -4
 511 0002 0E00     		movs	r6, r1
 116:main.c        ****     uint8_t bit_to_shift = (data == 0xFF) ? 1 : 0;
 512              		.loc 1 116 0
 513 0004 FF38     		subs	r0, r0, #255
 514              	.LVL55:
 515 0006 4542     		rsbs	r5, r0, #0
 516 0008 4541     		adcs	r5, r5, r0
 517 000a EDB2     		uxtb	r5, r5
 518              	.LVL56:
 519              	.LBB5:
 117:main.c        ****     
 118:main.c        ****     for (int i = 0; i < 8; i++) {
 520              		.loc 1 118 0
 521 000c 0024     		movs	r4, #0
 522 000e 04E0     		b	.L30
 523              	.LVL57:
 524              	.L31:
 119:main.c        ****         pulse_shift_clock_fast(bit_to_shift, delay_us); 
 525              		.loc 1 119 0 discriminator 3
 526 0010 3100     		movs	r1, r6
 527 0012 2800     		movs	r0, r5
 528 0014 FFF7FEFF 		bl	pulse_shift_clock_fast
 529              	.LVL58:
 118:main.c        ****         pulse_shift_clock_fast(bit_to_shift, delay_us); 
 530              		.loc 1 118 0 discriminator 3
 531 0018 0134     		adds	r4, r4, #1
 532              	.LVL59:
 533              	.L30:
 118:main.c        ****         pulse_shift_clock_fast(bit_to_shift, delay_us); 
 534              		.loc 1 118 0 is_stmt 0 discriminator 1
 535 001a 072C     		cmp	r4, #7
 536 001c F8DD     		ble	.L31
 537              	.LBE5:
 120:main.c        ****     }
 121:main.c        **** }
 538              		.loc 1 121 0 is_stmt 1
 539              		@ sp needed
 540              	.LVL60:
 541              	.LVL61:
 542              	.LVL62:
 543 001e 70BD     		pop	{r4, r5, r6, pc}
 544              		.cfi_endproc
 545              	.LFE46:
 546              		.size	shift_byte_software_speed_test, .-shift_byte_software_speed_test
 547              		.section	.text.read_parallel_output,"ax",%progbits
 548              		.align	2
 549              		.global	read_parallel_output
 550              		.code	16
 551              		.thumb_func
 552              		.type	read_parallel_output, %function
 553              	read_parallel_output:
 554              	.LFB47:
 122:main.c        **** 
 123:main.c        **** uint8_t read_parallel_output(void) {
 555              		.loc 1 123 0
ARM GAS  C:\tmp\cc3X0CVP.s 			page 13


 556              		.cfi_startproc
 557              		@ args = 0, pretend = 0, frame = 0
 558              		@ frame_needed = 0, uses_anonymous_args = 0
 559 0000 10B5     		push	{r4, lr}
 560              		.cfi_def_cfa_offset 8
 561              		.cfi_offset 4, -8
 562              		.cfi_offset 14, -4
 563              	.LVL63:
 124:main.c        ****     uint8_t result = 0;
 125:main.c        ****     if (Q7_Pin_Read()) result |= (1 << 7);
 564              		.loc 1 125 0
 565 0002 FFF7FEFF 		bl	Q7_Pin_Read
 566              	.LVL64:
 567 0006 0028     		cmp	r0, #0
 568 0008 01D1     		bne	.L41
 124:main.c        ****     uint8_t result = 0;
 569              		.loc 1 124 0
 570 000a 0024     		movs	r4, #0
 571 000c 00E0     		b	.L33
 572              	.L41:
 573              		.loc 1 125 0
 574 000e 8024     		movs	r4, #128
 575              	.L33:
 576              	.LVL65:
 126:main.c        ****     if (Q6_Pin_Read()) result |= (1 << 6);
 577              		.loc 1 126 0
 578 0010 FFF7FEFF 		bl	Q6_Pin_Read
 579              	.LVL66:
 580 0014 0028     		cmp	r0, #0
 581 0016 02D0     		beq	.L34
 582              		.loc 1 126 0 is_stmt 0 discriminator 1
 583 0018 4023     		movs	r3, #64
 584 001a 1C43     		orrs	r4, r3
 585              	.LVL67:
 586 001c E4B2     		uxtb	r4, r4
 587              	.LVL68:
 588              	.L34:
 127:main.c        ****     if (Q5_Pin_Read()) result |= (1 << 5);
 589              		.loc 1 127 0 is_stmt 1
 590 001e FFF7FEFF 		bl	Q5_Pin_Read
 591              	.LVL69:
 592 0022 0028     		cmp	r0, #0
 593 0024 02D0     		beq	.L35
 594              		.loc 1 127 0 is_stmt 0 discriminator 1
 595 0026 2023     		movs	r3, #32
 596 0028 1C43     		orrs	r4, r3
 597              	.LVL70:
 598 002a E4B2     		uxtb	r4, r4
 599              	.LVL71:
 600              	.L35:
 128:main.c        ****     if (Q4_Pin_Read()) result |= (1 << 4);
 601              		.loc 1 128 0 is_stmt 1
 602 002c FFF7FEFF 		bl	Q4_Pin_Read
 603              	.LVL72:
 604 0030 0028     		cmp	r0, #0
 605 0032 02D0     		beq	.L36
 606              		.loc 1 128 0 is_stmt 0 discriminator 1
ARM GAS  C:\tmp\cc3X0CVP.s 			page 14


 607 0034 1023     		movs	r3, #16
 608 0036 1C43     		orrs	r4, r3
 609              	.LVL73:
 610 0038 E4B2     		uxtb	r4, r4
 611              	.LVL74:
 612              	.L36:
 129:main.c        ****     if (Q3_Pin_Read()) result |= (1 << 3);
 613              		.loc 1 129 0 is_stmt 1
 614 003a FFF7FEFF 		bl	Q3_Pin_Read
 615              	.LVL75:
 616 003e 0028     		cmp	r0, #0
 617 0040 02D0     		beq	.L37
 618              		.loc 1 129 0 is_stmt 0 discriminator 1
 619 0042 0823     		movs	r3, #8
 620 0044 1C43     		orrs	r4, r3
 621              	.LVL76:
 622 0046 E4B2     		uxtb	r4, r4
 623              	.LVL77:
 624              	.L37:
 130:main.c        ****     if (Q2_Pin_Read()) result |= (1 << 2);
 625              		.loc 1 130 0 is_stmt 1
 626 0048 FFF7FEFF 		bl	Q2_Pin_Read
 627              	.LVL78:
 628 004c 0028     		cmp	r0, #0
 629 004e 02D0     		beq	.L38
 630              		.loc 1 130 0 is_stmt 0 discriminator 1
 631 0050 0423     		movs	r3, #4
 632 0052 1C43     		orrs	r4, r3
 633              	.LVL79:
 634 0054 E4B2     		uxtb	r4, r4
 635              	.LVL80:
 636              	.L38:
 131:main.c        ****     if (Q1_Pin_Read()) result |= (1 << 1);
 637              		.loc 1 131 0 is_stmt 1
 638 0056 FFF7FEFF 		bl	Q1_Pin_Read
 639              	.LVL81:
 640 005a 0028     		cmp	r0, #0
 641 005c 02D0     		beq	.L39
 642              		.loc 1 131 0 is_stmt 0 discriminator 1
 643 005e 0223     		movs	r3, #2
 644 0060 1C43     		orrs	r4, r3
 645              	.LVL82:
 646 0062 E4B2     		uxtb	r4, r4
 647              	.LVL83:
 648              	.L39:
 132:main.c        ****     if (Q0_Pin_Read()) result |= (1 << 0);
 649              		.loc 1 132 0 is_stmt 1
 650 0064 FFF7FEFF 		bl	Q0_Pin_Read
 651              	.LVL84:
 652 0068 0028     		cmp	r0, #0
 653 006a 02D0     		beq	.L40
 654              		.loc 1 132 0 is_stmt 0 discriminator 1
 655 006c 0123     		movs	r3, #1
 656 006e 1C43     		orrs	r4, r3
 657              	.LVL85:
 658 0070 E4B2     		uxtb	r4, r4
 659              	.LVL86:
ARM GAS  C:\tmp\cc3X0CVP.s 			page 15


 660              	.L40:
 133:main.c        ****     print_byte_hex(result, "OUTPUT Data (Q)");
 661              		.loc 1 133 0 is_stmt 1
 662 0072 0349     		ldr	r1, .L42
 663 0074 2000     		movs	r0, r4
 664 0076 FFF7FEFF 		bl	print_byte_hex
 665              	.LVL87:
 134:main.c        ****     return result;
 135:main.c        **** }
 666              		.loc 1 135 0
 667 007a 2000     		movs	r0, r4
 668              		@ sp needed
 669              	.LVL88:
 670 007c 10BD     		pop	{r4, pc}
 671              	.L43:
 672 007e C046     		.align	2
 673              	.L42:
 674 0080 BC000000 		.word	.LC14
 675              		.cfi_endproc
 676              	.LFE47:
 677              		.size	read_parallel_output, .-read_parallel_output
 678              		.section	.text.read_parallel_output_fast,"ax",%progbits
 679              		.align	2
 680              		.global	read_parallel_output_fast
 681              		.code	16
 682              		.thumb_func
 683              		.type	read_parallel_output_fast, %function
 684              	read_parallel_output_fast:
 685              	.LFB48:
 136:main.c        **** 
 137:main.c        **** uint8_t read_parallel_output_fast(void) {
 686              		.loc 1 137 0
 687              		.cfi_startproc
 688              		@ args = 0, pretend = 0, frame = 0
 689              		@ frame_needed = 0, uses_anonymous_args = 0
 690 0000 10B5     		push	{r4, lr}
 691              		.cfi_def_cfa_offset 8
 692              		.cfi_offset 4, -8
 693              		.cfi_offset 14, -4
 694              	.LVL89:
 138:main.c        ****     uint8_t result = 0;
 139:main.c        ****     if (Q7_Pin_Read()) result |= (1 << 7);
 695              		.loc 1 139 0
 696 0002 FFF7FEFF 		bl	Q7_Pin_Read
 697              	.LVL90:
 698 0006 0028     		cmp	r0, #0
 699 0008 01D1     		bne	.L53
 138:main.c        ****     uint8_t result = 0;
 700              		.loc 1 138 0
 701 000a 0024     		movs	r4, #0
 702 000c 00E0     		b	.L45
 703              	.L53:
 704              		.loc 1 139 0
 705 000e 8024     		movs	r4, #128
 706              	.L45:
 707              	.LVL91:
 140:main.c        ****     if (Q6_Pin_Read()) result |= (1 << 6);
ARM GAS  C:\tmp\cc3X0CVP.s 			page 16


 708              		.loc 1 140 0
 709 0010 FFF7FEFF 		bl	Q6_Pin_Read
 710              	.LVL92:
 711 0014 0028     		cmp	r0, #0
 712 0016 02D0     		beq	.L46
 713              		.loc 1 140 0 is_stmt 0 discriminator 1
 714 0018 4023     		movs	r3, #64
 715 001a 1C43     		orrs	r4, r3
 716              	.LVL93:
 717 001c E4B2     		uxtb	r4, r4
 718              	.LVL94:
 719              	.L46:
 141:main.c        ****     if (Q5_Pin_Read()) result |= (1 << 5);
 720              		.loc 1 141 0 is_stmt 1
 721 001e FFF7FEFF 		bl	Q5_Pin_Read
 722              	.LVL95:
 723 0022 0028     		cmp	r0, #0
 724 0024 02D0     		beq	.L47
 725              		.loc 1 141 0 is_stmt 0 discriminator 1
 726 0026 2023     		movs	r3, #32
 727 0028 1C43     		orrs	r4, r3
 728              	.LVL96:
 729 002a E4B2     		uxtb	r4, r4
 730              	.LVL97:
 731              	.L47:
 142:main.c        ****     if (Q4_Pin_Read()) result |= (1 << 4);
 732              		.loc 1 142 0 is_stmt 1
 733 002c FFF7FEFF 		bl	Q4_Pin_Read
 734              	.LVL98:
 735 0030 0028     		cmp	r0, #0
 736 0032 02D0     		beq	.L48
 737              		.loc 1 142 0 is_stmt 0 discriminator 1
 738 0034 1023     		movs	r3, #16
 739 0036 1C43     		orrs	r4, r3
 740              	.LVL99:
 741 0038 E4B2     		uxtb	r4, r4
 742              	.LVL100:
 743              	.L48:
 143:main.c        ****     if (Q3_Pin_Read()) result |= (1 << 3);
 744              		.loc 1 143 0 is_stmt 1
 745 003a FFF7FEFF 		bl	Q3_Pin_Read
 746              	.LVL101:
 747 003e 0028     		cmp	r0, #0
 748 0040 02D0     		beq	.L49
 749              		.loc 1 143 0 is_stmt 0 discriminator 1
 750 0042 0823     		movs	r3, #8
 751 0044 1C43     		orrs	r4, r3
 752              	.LVL102:
 753 0046 E4B2     		uxtb	r4, r4
 754              	.LVL103:
 755              	.L49:
 144:main.c        ****     if (Q2_Pin_Read()) result |= (1 << 2);
 756              		.loc 1 144 0 is_stmt 1
 757 0048 FFF7FEFF 		bl	Q2_Pin_Read
 758              	.LVL104:
 759 004c 0028     		cmp	r0, #0
 760 004e 02D0     		beq	.L50
ARM GAS  C:\tmp\cc3X0CVP.s 			page 17


 761              		.loc 1 144 0 is_stmt 0 discriminator 1
 762 0050 0423     		movs	r3, #4
 763 0052 1C43     		orrs	r4, r3
 764              	.LVL105:
 765 0054 E4B2     		uxtb	r4, r4
 766              	.LVL106:
 767              	.L50:
 145:main.c        ****     if (Q1_Pin_Read()) result |= (1 << 1);
 768              		.loc 1 145 0 is_stmt 1
 769 0056 FFF7FEFF 		bl	Q1_Pin_Read
 770              	.LVL107:
 771 005a 0028     		cmp	r0, #0
 772 005c 02D0     		beq	.L51
 773              		.loc 1 145 0 is_stmt 0 discriminator 1
 774 005e 0223     		movs	r3, #2
 775 0060 1C43     		orrs	r4, r3
 776              	.LVL108:
 777 0062 E4B2     		uxtb	r4, r4
 778              	.LVL109:
 779              	.L51:
 146:main.c        ****     if (Q0_Pin_Read()) result |= (1 << 0);
 780              		.loc 1 146 0 is_stmt 1
 781 0064 FFF7FEFF 		bl	Q0_Pin_Read
 782              	.LVL110:
 783 0068 0028     		cmp	r0, #0
 784 006a 02D0     		beq	.L52
 785              		.loc 1 146 0 is_stmt 0 discriminator 1
 786 006c 0123     		movs	r3, #1
 787 006e 1C43     		orrs	r4, r3
 788              	.LVL111:
 789 0070 E4B2     		uxtb	r4, r4
 790              	.LVL112:
 791              	.L52:
 147:main.c        ****     return result;
 148:main.c        **** }
 792              		.loc 1 148 0 is_stmt 1
 793 0072 2000     		movs	r0, r4
 794              		@ sp needed
 795              	.LVL113:
 796 0074 10BD     		pop	{r4, pc}
 797              		.cfi_endproc
 798              	.LFE48:
 799              		.size	read_parallel_output_fast, .-read_parallel_output_fast
 800              		.global	__aeabi_uidiv
 801              		.global	__aeabi_ui2f
 802              		.global	__aeabi_f2d
 803              		.global	__aeabi_fdiv
 804 0076 C046     		.section	.text.main,"ax",%progbits
 805              		.align	2
 806              		.global	main
 807              		.code	16
 808              		.thumb_func
 809              		.type	main, %function
 810              	main:
 811              	.LFB49:
 149:main.c        **** 
 150:main.c        **** int main(void)
ARM GAS  C:\tmp\cc3X0CVP.s 			page 18


 151:main.c        **** {
 812              		.loc 1 151 0
 813              		.cfi_startproc
 814              		@ args = 0, pretend = 0, frame = 160
 815              		@ frame_needed = 0, uses_anonymous_args = 0
 816 0000 70B5     		push	{r4, r5, r6, lr}
 817              		.cfi_def_cfa_offset 16
 818              		.cfi_offset 4, -16
 819              		.cfi_offset 5, -12
 820              		.cfi_offset 6, -8
 821              		.cfi_offset 14, -4
 822 0002 AAB0     		sub	sp, sp, #168
 823              		.cfi_def_cfa_offset 184
 152:main.c        ****     CyGlobalIntEnable;
 824              		.loc 1 152 0
 825              		.syntax divided
 826              	@ 152 "main.c" 1
 827 0004 62B6     		CPSIE   i
 828              	@ 0 "" 2
 153:main.c        **** 
 154:main.c        ****     UART_1_Start();
 829              		.loc 1 154 0
 830              		.thumb
 831              		.syntax unified
 832 0006 FFF7FEFF 		bl	UART_1_Start
 833              	.LVL114:
 155:main.c        **** 
 156:main.c        ****     MR_Pin_Write(0); 
 834              		.loc 1 156 0
 835 000a 0020     		movs	r0, #0
 836 000c FFF7FEFF 		bl	MR_Pin_Write
 837              	.LVL115:
 157:main.c        ****     
 158:main.c        ****     MR_Pin_Write(1); 
 838              		.loc 1 158 0
 839 0010 0120     		movs	r0, #1
 840 0012 FFF7FEFF 		bl	MR_Pin_Write
 841              	.LVL116:
 159:main.c        ****     
 160:main.c        ****     OE_Pin_Write(0); 
 842              		.loc 1 160 0
 843 0016 0020     		movs	r0, #0
 844 0018 FFF7FEFF 		bl	OE_Pin_Write
 845              	.LVL117:
 161:main.c        ****     
 162:main.c        ****     STCP_Pin_Write(0);
 846              		.loc 1 162 0
 847 001c 0020     		movs	r0, #0
 848 001e FFF7FEFF 		bl	STCP_Pin_Write
 849              	.LVL118:
 163:main.c        ****     DS_Pin_Write(0);
 850              		.loc 1 163 0
 851 0022 0020     		movs	r0, #0
 852 0024 FFF7FEFF 		bl	DS_Pin_Write
 853              	.LVL119:
 164:main.c        ****     SHCP_Pin_Write(0);
 854              		.loc 1 164 0
ARM GAS  C:\tmp\cc3X0CVP.s 			page 19


 855 0028 0020     		movs	r0, #0
 856 002a FFF7FEFF 		bl	SHCP_Pin_Write
 857              	.LVL120:
 165:main.c        **** 
 166:main.c        ****     UART_1_UartPutString("\r\n==============================================\r\n");
 858              		.loc 1 166 0
 859 002e 7748     		ldr	r0, .L73
 860 0030 FFF7FEFF 		bl	UART_1_UartPutString
 861              	.LVL121:
 167:main.c        ****     UART_1_UartPutString("  74HC595 Functional Tester (Software Speed Test) Started\r\n");
 862              		.loc 1 167 0
 863 0034 7648     		ldr	r0, .L73+4
 864 0036 FFF7FEFF 		bl	UART_1_UartPutString
 865              	.LVL122:
 168:main.c        ****     UART_1_UartPutString("==============================================\r\n");
 866              		.loc 1 168 0
 867 003a 7648     		ldr	r0, .L73+8
 868 003c FFF7FEFF 		bl	UART_1_UartPutString
 869              	.LVL123:
 169:main.c        ****     UART_1_UartPutString("!!! WARNING: Speed test relies on software delays (CyDelayUs) and is only
 870              		.loc 1 169 0
 871 0040 7548     		ldr	r0, .L73+12
 872 0042 FFF7FEFF 		bl	UART_1_UartPutString
 873              	.LVL124:
 170:main.c        **** 
 171:main.c        ****     LED_ERROR_Write(1);
 874              		.loc 1 171 0
 875 0046 0120     		movs	r0, #1
 876 0048 FFF7FEFF 		bl	LED_ERROR_Write
 877              	.LVL125:
 172:main.c        ****     LED_OK_Write(1);
 878              		.loc 1 172 0
 879 004c 0120     		movs	r0, #1
 880 004e FFF7FEFF 		bl	LED_OK_Write
 881              	.LVL126:
 173:main.c        **** 
 174:main.c        ****     bool test_passed = true;
 175:main.c        ****     uint8_t test_data = 0;
 176:main.c        **** 
 177:main.c        ****     if (test_passed) {
 178:main.c        ****         UART_1_UartPutString("\r\n--- TEST 1: Full Shift and Latch Cycle (Slow, with Log) ---\r\n")
 882              		.loc 1 178 0
 883 0052 7248     		ldr	r0, .L73+16
 884 0054 FFF7FEFF 		bl	UART_1_UartPutString
 885              	.LVL127:
 886              	.LBB6:
 179:main.c        **** 
 180:main.c        ****         for (uint16_t i = TEST_DATA_START; i <= TEST_DATA_END; i++) {
 887              		.loc 1 180 0
 888 0058 0024     		movs	r4, #0
 889              	.LBE6:
 175:main.c        **** 
 890              		.loc 1 175 0
 891 005a 0025     		movs	r5, #0
 892              	.LBB8:
 893              		.loc 1 180 0
 894 005c 11E0     		b	.L55
ARM GAS  C:\tmp\cc3X0CVP.s 			page 20


 895              	.LVL128:
 896              	.L58:
 897              	.LBB7:
 181:main.c        ****             test_data = (uint8_t)i;
 898              		.loc 1 181 0
 899 005e E5B2     		uxtb	r5, r4
 900              	.LVL129:
 182:main.c        **** 
 183:main.c        ****             shift_byte_and_report(test_data);
 901              		.loc 1 183 0
 902 0060 2800     		movs	r0, r5
 903 0062 FFF7FEFF 		bl	shift_byte_and_report
 904              	.LVL130:
 184:main.c        ****             pulse_latch_clock();
 905              		.loc 1 184 0
 906 0066 FFF7FEFF 		bl	pulse_latch_clock
 907              	.LVL131:
 185:main.c        ****             uint8_t actual_output = read_parallel_output();
 908              		.loc 1 185 0
 909 006a FFF7FEFF 		bl	read_parallel_output
 910              	.LVL132:
 186:main.c        **** 
 187:main.c        ****             if (actual_output != test_data) {
 911              		.loc 1 187 0
 912 006e 8542     		cmp	r5, r0
 913 0070 05D0     		beq	.L56
 188:main.c        ****                 report_test_status(false, "Data Mismatch in Full Cycle Test (Output != Input).");
 914              		.loc 1 188 0
 915 0072 6B49     		ldr	r1, .L73+20
 916 0074 0020     		movs	r0, #0
 917              	.LVL133:
 918 0076 FFF7FEFF 		bl	report_test_status
 919              	.LVL134:
 189:main.c        ****                 test_passed = false;
 920              		.loc 1 189 0
 921 007a 0023     		movs	r3, #0
 190:main.c        ****                 goto final_report; 
 922              		.loc 1 190 0
 923 007c B7E0     		b	.L57
 924              	.LVL135:
 925              	.L56:
 926              	.LBE7:
 180:main.c        ****             test_data = (uint8_t)i;
 927              		.loc 1 180 0 discriminator 2
 928 007e 0134     		adds	r4, r4, #1
 929              	.LVL136:
 930 0080 A4B2     		uxth	r4, r4
 931              	.LVL137:
 932              	.L55:
 180:main.c        ****             test_data = (uint8_t)i;
 933              		.loc 1 180 0 is_stmt 0 discriminator 1
 934 0082 FF2C     		cmp	r4, #255
 935 0084 EBD9     		bls	.L58
 936              	.LVL138:
 937              	.LBE8:
 938              	.LBB9:
 191:main.c        ****             }
ARM GAS  C:\tmp\cc3X0CVP.s 			page 21


 192:main.c        **** 
 193:main.c        ****             //CyDelay(5);
 194:main.c        ****         }
 195:main.c        ****     }
 196:main.c        ****     
 197:main.c        ****     uint8_t last_successful_output = test_data;
 198:main.c        **** 
 199:main.c        ****     if (test_passed) {
 200:main.c        ****         UART_1_UartPutString("\r\n--- TEST 2: Memory Integrity Check (Slow) ---\r\n");
 939              		.loc 1 200 0 is_stmt 1
 940 0086 6748     		ldr	r0, .L73+24
 941 0088 FFF7FEFF 		bl	UART_1_UartPutString
 942              	.LVL139:
 201:main.c        **** 
 202:main.c        ****         shift_byte_and_report(0x55);
 943              		.loc 1 202 0
 944 008c 5520     		movs	r0, #85
 945 008e FFF7FEFF 		bl	shift_byte_and_report
 946              	.LVL140:
 203:main.c        ****         uint8_t memory_check = read_parallel_output();
 947              		.loc 1 203 0
 948 0092 FFF7FEFF 		bl	read_parallel_output
 949              	.LVL141:
 204:main.c        **** 
 205:main.c        ****         if (memory_check != last_successful_output) {
 950              		.loc 1 205 0
 951 0096 8542     		cmp	r5, r0
 952 0098 0BD0     		beq	.L59
 953              	.LBB10:
 206:main.c        ****             char fail_msg[100];
 207:main.c        ****             sprintf(fail_msg, "Latch/Memory Failure: Output changed (Expected 0x%02X, Got 0x%02X) w
 954              		.loc 1 207 0
 955 009a 0300     		movs	r3, r0
 956 009c 2A00     		movs	r2, r5
 957 009e 6249     		ldr	r1, .L73+28
 958 00a0 04A8     		add	r0, sp, #16
 959              	.LVL142:
 960 00a2 FFF7FEFF 		bl	sprintf
 961              	.LVL143:
 208:main.c        ****             report_test_status(false, fail_msg);
 962              		.loc 1 208 0
 963 00a6 04A9     		add	r1, sp, #16
 964 00a8 0020     		movs	r0, #0
 965 00aa FFF7FEFF 		bl	report_test_status
 966              	.LVL144:
 209:main.c        ****             test_passed = false;
 967              		.loc 1 209 0
 968 00ae 0023     		movs	r3, #0
 969 00b0 9DE0     		b	.L57
 970              	.LVL145:
 971              	.L59:
 972              	.LBE10:
 973              	.LBB11:
 210:main.c        ****             goto final_report; 
 211:main.c        ****         } else {
 212:main.c        ****             char ok_msg[80];
 213:main.c        ****             sprintf(ok_msg, "Memory check OK (Output stable at 0x%02X).\r\n", last_successful_outpu
ARM GAS  C:\tmp\cc3X0CVP.s 			page 22


 974              		.loc 1 213 0
 975 00b2 2A00     		movs	r2, r5
 976 00b4 5D49     		ldr	r1, .L73+32
 977 00b6 04A8     		add	r0, sp, #16
 978              	.LVL146:
 979 00b8 FFF7FEFF 		bl	sprintf
 980              	.LVL147:
 214:main.c        ****             UART_1_UartPutString(ok_msg);
 981              		.loc 1 214 0
 982 00bc 04A8     		add	r0, sp, #16
 983 00be FFF7FEFF 		bl	UART_1_UartPutString
 984              	.LVL148:
 215:main.c        **** 
 216:main.c        ****             pulse_latch_clock(); // Фіксуємо 0x55
 985              		.loc 1 216 0
 986 00c2 FFF7FEFF 		bl	pulse_latch_clock
 987              	.LVL149:
 217:main.c        ****             uint8_t final_check = read_parallel_output();
 988              		.loc 1 217 0
 989 00c6 FFF7FEFF 		bl	read_parallel_output
 990              	.LVL150:
 218:main.c        ****             if (final_check != 0x55) {
 991              		.loc 1 218 0
 992 00ca 5528     		cmp	r0, #85
 993 00cc 05D0     		beq	.L60
 219:main.c        ****                 report_test_status(false, "Final Latch Failure: Expected 0x55 after RCLK.");
 994              		.loc 1 219 0
 995 00ce 5849     		ldr	r1, .L73+36
 996 00d0 0020     		movs	r0, #0
 997              	.LVL151:
 998 00d2 FFF7FEFF 		bl	report_test_status
 999              	.LVL152:
 220:main.c        ****                 test_passed = false;
 1000              		.loc 1 220 0
 1001 00d6 0023     		movs	r3, #0
 1002 00d8 89E0     		b	.L57
 1003              	.LVL153:
 1004              	.L60:
 221:main.c        ****                 goto final_report; 
 222:main.c        ****             } else {
 223:main.c        ****                 UART_1_UartPutString("Final Latch check OK.\r\n");
 1005              		.loc 1 223 0
 1006 00da 5648     		ldr	r0, .L73+40
 1007              	.LVL154:
 1008 00dc FFF7FEFF 		bl	UART_1_UartPutString
 1009              	.LVL155:
 1010              	.LBE11:
 1011              	.LBE9:
 1012              	.LBB12:
 224:main.c        ****             }
 225:main.c        ****         }
 226:main.c        ****     }
 227:main.c        ****     
 228:main.c        ****     if (test_passed) {
 229:main.c        ****         UART_1_UartPutString("\r\n--- TEST 3: Software Shift Clock Speed Test ---\r\n");
 1013              		.loc 1 229 0
 1014 00e0 5548     		ldr	r0, .L73+44
ARM GAS  C:\tmp\cc3X0CVP.s 			page 23


 1015 00e2 FFF7FEFF 		bl	UART_1_UartPutString
 1016              	.LVL156:
 230:main.c        ****         
 231:main.c        ****         uint32_t current_delay_us = START_DELAY_US;
 1017              		.loc 1 231 0
 1018 00e6 0A26     		movs	r6, #10
 1019              	.LVL157:
 1020              	.L67:
 1021              	.LBB13:
 232:main.c        ****         unsigned long max_stable_freq_khz = 0;
 233:main.c        ****         
 234:main.c        ****         while (current_delay_us >= MIN_DELAY_US) {
 235:main.c        ****             
 236:main.c        ****             unsigned long current_freq_khz = (current_delay_us > 0) 
 237:main.c        ****                 ? (1000000UL / (2 * current_delay_us)) / 1000UL 
 238:main.c        ****                 : 99999UL; 
 1022              		.loc 1 238 0
 1023 00e8 002E     		cmp	r6, #0
 1024 00ea 06D0     		beq	.L71
 237:main.c        ****                 : 99999UL; 
 1025              		.loc 1 237 0 discriminator 1
 1026 00ec 7100     		lsls	r1, r6, #1
 1027              		.loc 1 238 0 discriminator 1
 1028 00ee FA20     		movs	r0, #250
 1029 00f0 8000     		lsls	r0, r0, #2
 1030 00f2 FFF7FEFF 		bl	__aeabi_uidiv
 1031              	.LVL158:
 1032 00f6 0400     		movs	r4, r0
 1033 00f8 00E0     		b	.L61
 1034              	.L71:
 1035              		.loc 1 238 0 is_stmt 0
 1036 00fa 504C     		ldr	r4, .L73+48
 1037              	.L61:
 1038              	.LVL159:
 239:main.c        ****             
 240:main.c        ****             char str_buf[150];
 241:main.c        ****             
 242:main.c        ****             shift_byte_software_speed_test(0x00, current_delay_us);
 1039              		.loc 1 242 0 is_stmt 1
 1040 00fc 3100     		movs	r1, r6
 1041 00fe 0020     		movs	r0, #0
 1042 0100 FFF7FEFF 		bl	shift_byte_software_speed_test
 1043              	.LVL160:
 243:main.c        ****             pulse_latch_clock_fast();
 1044              		.loc 1 243 0
 1045 0104 FFF7FEFF 		bl	pulse_latch_clock_fast
 1046              	.LVL161:
 244:main.c        ****             uint8_t actual_output_00 = read_parallel_output_fast();
 1047              		.loc 1 244 0
 1048 0108 FFF7FEFF 		bl	read_parallel_output_fast
 1049              	.LVL162:
 1050 010c 051E     		subs	r5, r0, #0
 1051              	.LVL163:
 245:main.c        ****             
 246:main.c        ****             if (actual_output_00 != 0x00) {
 1052              		.loc 1 246 0
 1053 010e 17D0     		beq	.L62
ARM GAS  C:\tmp\cc3X0CVP.s 			page 24


 247:main.c        ****                 max_stable_freq_khz = (current_delay_us + DELAY_STEP_US) > START_DELAY_US ? 0 : (10
 248:main.c        ****                 
 249:main.c        ****                 sprintf(str_buf, "\r\n!!! FAILURE at estimated %.1f kHz (Test 0x00) (Delay %lu us) 
 250:main.c        ****                         (float)current_freq_khz, current_delay_us);
 1054              		.loc 1 250 0
 1055 0110 2000     		movs	r0, r4
 1056              	.LVL164:
 1057 0112 FFF7FEFF 		bl	__aeabi_ui2f
 1058              	.LVL165:
 249:main.c        ****                         (float)current_freq_khz, current_delay_us);
 1059              		.loc 1 249 0
 1060 0116 FFF7FEFF 		bl	__aeabi_f2d
 1061              	.LVL166:
 1062 011a 0200     		movs	r2, r0
 1063 011c 0B00     		movs	r3, r1
 1064 011e 0096     		str	r6, [sp]
 1065 0120 4749     		ldr	r1, .L73+52
 1066 0122 04A8     		add	r0, sp, #16
 1067 0124 FFF7FEFF 		bl	sprintf
 1068              	.LVL167:
 251:main.c        ****                 UART_1_UartPutString(str_buf);
 1069              		.loc 1 251 0
 1070 0128 04A8     		add	r0, sp, #16
 1071 012a FFF7FEFF 		bl	UART_1_UartPutString
 1072              	.LVL168:
 252:main.c        ****                 print_byte_hex(0x00, "Expected");
 1073              		.loc 1 252 0
 1074 012e 4549     		ldr	r1, .L73+56
 1075 0130 0020     		movs	r0, #0
 1076 0132 FFF7FEFF 		bl	print_byte_hex
 1077              	.LVL169:
 253:main.c        ****                 print_byte_hex(actual_output_00, "Actual");
 1078              		.loc 1 253 0
 1079 0136 4449     		ldr	r1, .L73+60
 1080 0138 2800     		movs	r0, r5
 1081 013a FFF7FEFF 		bl	print_byte_hex
 1082              	.LVL170:
 254:main.c        ****                 test_passed = false;
 255:main.c        ****                 goto final_report; 
 1083              		.loc 1 255 0
 1084 013e 39E0     		b	.L63
 1085              	.LVL171:
 1086              	.L62:
 256:main.c        ****             }
 257:main.c        ****             
 258:main.c        ****             shift_byte_software_speed_test(0xFF, current_delay_us);
 1087              		.loc 1 258 0
 1088 0140 3100     		movs	r1, r6
 1089 0142 FF20     		movs	r0, #255
 1090              	.LVL172:
 1091 0144 FFF7FEFF 		bl	shift_byte_software_speed_test
 1092              	.LVL173:
 259:main.c        ****             pulse_latch_clock_fast();
 1093              		.loc 1 259 0
 1094 0148 FFF7FEFF 		bl	pulse_latch_clock_fast
 1095              	.LVL174:
 260:main.c        ****             uint8_t actual_output_FF = read_parallel_output_fast();
ARM GAS  C:\tmp\cc3X0CVP.s 			page 25


 1096              		.loc 1 260 0
 1097 014c FFF7FEFF 		bl	read_parallel_output_fast
 1098              	.LVL175:
 1099 0150 0500     		movs	r5, r0
 1100              	.LVL176:
 261:main.c        ****             
 262:main.c        ****             if (actual_output_FF != 0xFF) {
 1101              		.loc 1 262 0
 1102 0152 FF28     		cmp	r0, #255
 1103 0154 17D0     		beq	.L64
 263:main.c        ****                 max_stable_freq_khz = (current_delay_us + DELAY_STEP_US) > START_DELAY_US ? 0 : (10
 264:main.c        ****                 
 265:main.c        ****                 sprintf(str_buf, "\r\n!!! FAILURE at estimated %.1f kHz (Test 0xFF) (Delay %lu us) 
 266:main.c        ****                         (float)current_freq_khz, current_delay_us);
 1104              		.loc 1 266 0
 1105 0156 2000     		movs	r0, r4
 1106              	.LVL177:
 1107 0158 FFF7FEFF 		bl	__aeabi_ui2f
 1108              	.LVL178:
 265:main.c        ****                         (float)current_freq_khz, current_delay_us);
 1109              		.loc 1 265 0
 1110 015c FFF7FEFF 		bl	__aeabi_f2d
 1111              	.LVL179:
 1112 0160 0200     		movs	r2, r0
 1113 0162 0B00     		movs	r3, r1
 1114 0164 0096     		str	r6, [sp]
 1115 0166 3949     		ldr	r1, .L73+64
 1116 0168 04A8     		add	r0, sp, #16
 1117 016a FFF7FEFF 		bl	sprintf
 1118              	.LVL180:
 267:main.c        ****                 UART_1_UartPutString(str_buf);
 1119              		.loc 1 267 0
 1120 016e 04A8     		add	r0, sp, #16
 1121 0170 FFF7FEFF 		bl	UART_1_UartPutString
 1122              	.LVL181:
 268:main.c        ****                 print_byte_hex(0xFF, "Expected");
 1123              		.loc 1 268 0
 1124 0174 3349     		ldr	r1, .L73+56
 1125 0176 FF20     		movs	r0, #255
 1126 0178 FFF7FEFF 		bl	print_byte_hex
 1127              	.LVL182:
 269:main.c        ****                 print_byte_hex(actual_output_FF, "Actual");
 1128              		.loc 1 269 0
 1129 017c 3249     		ldr	r1, .L73+60
 1130 017e 2800     		movs	r0, r5
 1131 0180 FFF7FEFF 		bl	print_byte_hex
 1132              	.LVL183:
 270:main.c        ****                 test_passed = false;
 271:main.c        ****                 goto final_report; 
 1133              		.loc 1 271 0
 1134 0184 16E0     		b	.L63
 1135              	.LVL184:
 1136              	.L64:
 272:main.c        ****             }
 273:main.c        **** 
 274:main.c        ****             
 275:main.c        ****             max_stable_freq_khz = current_freq_khz;
ARM GAS  C:\tmp\cc3X0CVP.s 			page 26


 276:main.c        ****             sprintf(str_buf, "  >> Stable at estimated %.1f kHz (Delay %lu us).\r\n", (float)curren
 1137              		.loc 1 276 0
 1138 0186 2000     		movs	r0, r4
 1139              	.LVL185:
 1140 0188 FFF7FEFF 		bl	__aeabi_ui2f
 1141              	.LVL186:
 1142 018c 051C     		adds	r5, r0, #0
 1143              	.LVL187:
 1144 018e FFF7FEFF 		bl	__aeabi_f2d
 1145              	.LVL188:
 1146 0192 0200     		movs	r2, r0
 1147 0194 0B00     		movs	r3, r1
 1148 0196 0292     		str	r2, [sp, #8]
 1149 0198 0393     		str	r3, [sp, #12]
 1150 019a 0096     		str	r6, [sp]
 1151 019c 2C49     		ldr	r1, .L73+68
 1152 019e 04A8     		add	r0, sp, #16
 1153 01a0 FFF7FEFF 		bl	sprintf
 1154              	.LVL189:
 277:main.c        ****             
 278:main.c        ****             if (current_delay_us == MIN_DELAY_US) break;
 1155              		.loc 1 278 0
 1156 01a4 002E     		cmp	r6, #0
 1157 01a6 07D0     		beq	.L65
 279:main.c        ****             
 280:main.c        ****             current_delay_us = (current_delay_us > DELAY_STEP_US) ? (current_delay_us - DELAY_STEP_
 1158              		.loc 1 280 0
 1159 01a8 012E     		cmp	r6, #1
 1160 01aa 01D9     		bls	.L72
 1161              		.loc 1 280 0 is_stmt 0 discriminator 1
 1162 01ac 013E     		subs	r6, r6, #1
 1163              	.LVL190:
 1164 01ae 9BE7     		b	.L67
 1165              	.LVL191:
 1166              	.L72:
 1167              		.loc 1 280 0
 1168 01b0 0026     		movs	r6, #0
 1169              	.LVL192:
 1170              	.LBE13:
 281:main.c        ****         }
 1171              		.loc 1 281 0 is_stmt 1
 1172 01b2 99E7     		b	.L67
 1173              	.LVL193:
 1174              	.L63:
 1175              	.LBB14:
 255:main.c        ****             }
 1176              		.loc 1 255 0
 1177 01b4 0023     		movs	r3, #0
 1178 01b6 1AE0     		b	.L57
 1179              	.LVL194:
 1180              	.L65:
 1181              	.LBE14:
 282:main.c        ****         
 283:main.c        ****         
 284:main.c        ****         if (max_stable_freq_khz > 0) {
 1182              		.loc 1 284 0
 1183 01b8 002C     		cmp	r4, #0
ARM GAS  C:\tmp\cc3X0CVP.s 			page 27


 1184 01ba 13D0     		beq	.L68
 1185              	.LBB15:
 285:main.c        ****             char final_msg[120];
 286:main.c        ****             sprintf(final_msg, "Max Stable Frequency (ESTIMATED): %.1f kHz (~%.2f MHz).\r\n", 
 287:main.c        ****                     (float)max_stable_freq_khz, (float)max_stable_freq_khz / 1000.0f);
 1186              		.loc 1 287 0
 1187 01bc 2549     		ldr	r1, .L73+72
 1188 01be 281C     		adds	r0, r5, #0
 1189 01c0 FFF7FEFF 		bl	__aeabi_fdiv
 1190              	.LVL195:
 286:main.c        ****                     (float)max_stable_freq_khz, (float)max_stable_freq_khz / 1000.0f);
 1191              		.loc 1 286 0
 1192 01c4 FFF7FEFF 		bl	__aeabi_f2d
 1193              	.LVL196:
 1194 01c8 0090     		str	r0, [sp]
 1195 01ca 0191     		str	r1, [sp, #4]
 1196 01cc 029A     		ldr	r2, [sp, #8]
 1197 01ce 039B     		ldr	r3, [sp, #12]
 1198 01d0 2149     		ldr	r1, .L73+76
 1199 01d2 04A8     		add	r0, sp, #16
 1200 01d4 FFF7FEFF 		bl	sprintf
 1201              	.LVL197:
 288:main.c        ****             report_test_status(true, final_msg);
 1202              		.loc 1 288 0
 1203 01d8 04A9     		add	r1, sp, #16
 1204 01da 0120     		movs	r0, #1
 1205 01dc FFF7FEFF 		bl	report_test_status
 1206              	.LVL198:
 1207              	.LBE15:
 1208              	.LBE12:
 174:main.c        ****     uint8_t test_data = 0;
 1209              		.loc 1 174 0
 1210 01e0 0123     		movs	r3, #1
 1211              	.LBB16:
 1212 01e2 04E0     		b	.L57
 1213              	.L68:
 289:main.c        ****         } else {
 290:main.c        ****              report_test_status(false, "Speed test failed immediately (check connections).");
 1214              		.loc 1 290 0
 1215 01e4 1D49     		ldr	r1, .L73+80
 1216 01e6 0020     		movs	r0, #0
 1217 01e8 FFF7FEFF 		bl	report_test_status
 1218              	.LVL199:
 291:main.c        ****              test_passed = false;
 1219              		.loc 1 291 0
 1220 01ec 0023     		movs	r3, #0
 1221              	.LVL200:
 1222              	.L57:
 1223              	.LBE16:
 292:main.c        ****         }
 293:main.c        ****     }
 294:main.c        **** 
 295:main.c        **** final_report:; 
 296:main.c        ****     if (test_passed) {
 1224              		.loc 1 296 0
 1225 01ee 002B     		cmp	r3, #0
 1226 01f0 04D0     		beq	.L69
ARM GAS  C:\tmp\cc3X0CVP.s 			page 28


 297:main.c        ****         report_test_status(true, "74HC595 PASSED ALL BASIC FUNCTIONAL TESTS.");
 1227              		.loc 1 297 0
 1228 01f2 1B49     		ldr	r1, .L73+84
 1229 01f4 0120     		movs	r0, #1
 1230 01f6 FFF7FEFF 		bl	report_test_status
 1231              	.LVL201:
 1232 01fa 03E0     		b	.L70
 1233              	.LVL202:
 1234              	.L69:
 298:main.c        ****     } else {
 299:main.c        ****         report_test_status(false, "74HC595 FAILED TEST.");
 1235              		.loc 1 299 0
 1236 01fc 1949     		ldr	r1, .L73+88
 1237 01fe 0020     		movs	r0, #0
 1238 0200 FFF7FEFF 		bl	report_test_status
 1239              	.LVL203:
 1240              	.L70:
 300:main.c        ****     }
 301:main.c        ****     
 302:main.c        ****     return 0; 
 303:main.c        **** }...
 1241              		.loc 1 303 0
 1242 0204 0020     		movs	r0, #0
 1243 0206 2AB0     		add	sp, sp, #168
 1244              		@ sp needed
 1245 0208 70BD     		pop	{r4, r5, r6, pc}
 1246              	.L74:
 1247 020a C046     		.align	2
 1248              	.L73:
 1249 020c CC000000 		.word	.LC16
 1250 0210 00010000 		.word	.LC18
 1251 0214 3C010000 		.word	.LC20
 1252 0218 70010000 		.word	.LC22
 1253 021c D0010000 		.word	.LC24
 1254 0220 10020000 		.word	.LC26
 1255 0224 44020000 		.word	.LC28
 1256 0228 78020000 		.word	.LC30
 1257 022c D0020000 		.word	.LC32
 1258 0230 00030000 		.word	.LC34
 1259 0234 30030000 		.word	.LC36
 1260 0238 48030000 		.word	.LC38
 1261 023c 9F860100 		.word	99999
 1262 0240 7C030000 		.word	.LC40
 1263 0244 C4030000 		.word	.LC42
 1264 0248 D0030000 		.word	.LC44
 1265 024c D8030000 		.word	.LC46
 1266 0250 20040000 		.word	.LC48
 1267 0254 00007A44 		.word	1148846080
 1268 0258 54040000 		.word	.LC50
 1269 025c 90040000 		.word	.LC52
 1270 0260 C4040000 		.word	.LC54
 1271 0264 F0040000 		.word	.LC56
 1272              		.cfi_endproc
 1273              	.LFE49:
 1274              		.size	main, .-main
 1275              		.section	.rodata.str1.4,"aMS",%progbits,1
 1276              		.align	2
ARM GAS  C:\tmp\cc3X0CVP.s 			page 29


 1277              	.LC0:
 1278 0000 25733A20 		.ascii	"%s: 0x%02X (BIN: %s)\015\012\000"
 1278      30782530 
 1278      32582028 
 1278      42494E3A 
 1278      20257329 
 1279 0017 00       		.space	1
 1280              	.LC2:
 1281 0018 0D0A2A2A 		.ascii	"\015\012*** SUCCESS: \000"
 1281      2A205355 
 1281      43434553 
 1281      533A2000 
 1282              	.LC4:
 1283 0028 0D0A2121 		.ascii	"\015\012!!! FAILURE: \000"
 1283      21204641 
 1283      494C5552 
 1283      453A2000 
 1284              	.LC6:
 1285 0038 202A2A2A 		.ascii	" ***\015\012\000"
 1285      0D0A00
 1286 003f 00       		.space	1
 1287              	.LC8:
 1288 0040 20203E3E 		.ascii	"  >> SHCP Pulse (Shifting Bit %d, Value %d)\015\012"
 1288      20534843 
 1288      50205075 
 1288      6C736520 
 1288      28536869 
 1289 006d 00       		.ascii	"\000"
 1290 006e 0000     		.space	2
 1291              	.LC10:
 1292 0070 2D2D2D20 		.ascii	"--- RCLK Pulse (Latch: Data Transfer to Output) ---"
 1292      52434C4B 
 1292      2050756C 
 1292      73652028 
 1292      4C617463 
 1293 00a3 0D0A00   		.ascii	"\015\012\000"
 1294 00a6 0000     		.space	2
 1295              	.LC12:
 1296 00a8 494E5055 		.ascii	"INPUT Data (SER)\000"
 1296      54204461 
 1296      74612028 
 1296      53455229 
 1296      00
 1297 00b9 000000   		.space	3
 1298              	.LC14:
 1299 00bc 4F555450 		.ascii	"OUTPUT Data (Q)\000"
 1299      55542044 
 1299      61746120 
 1299      28512900 
 1300              	.LC16:
 1301 00cc 0D0A3D3D 		.ascii	"\015\012==========================================="
 1301      3D3D3D3D 
 1301      3D3D3D3D 
 1301      3D3D3D3D 
 1301      3D3D3D3D 
 1302 00f9 3D3D3D0D 		.ascii	"===\015\012\000"
 1302      0A00
ARM GAS  C:\tmp\cc3X0CVP.s 			page 30


 1303 00ff 00       		.space	1
 1304              	.LC18:
 1305 0100 20203734 		.ascii	"  74HC595 Functional Tester (Software Speed Test) S"
 1305      48433539 
 1305      35204675 
 1305      6E637469 
 1305      6F6E616C 
 1306 0133 74617274 		.ascii	"tarted\015\012\000"
 1306      65640D0A 
 1306      00
 1307              	.LC20:
 1308 013c 3D3D3D3D 		.ascii	"==============================================\015\012"
 1308      3D3D3D3D 
 1308      3D3D3D3D 
 1308      3D3D3D3D 
 1308      3D3D3D3D 
 1309 016c 00       		.ascii	"\000"
 1310 016d 000000   		.space	3
 1311              	.LC22:
 1312 0170 21212120 		.ascii	"!!! WARNING: Speed test relies on software delays ("
 1312      5741524E 
 1312      494E473A 
 1312      20537065 
 1312      65642074 
 1313 01a3 43794465 		.ascii	"CyDelayUs) and is only an estimate. !!!\015\012\000"
 1313      6C617955 
 1313      73292061 
 1313      6E642069 
 1313      73206F6E 
 1314 01cd 000000   		.space	3
 1315              	.LC24:
 1316 01d0 0D0A2D2D 		.ascii	"\015\012--- TEST 1: Full Shift and Latch Cycle (Slo"
 1316      2D205445 
 1316      53542031 
 1316      3A204675 
 1316      6C6C2053 
 1317 01fd 772C2077 		.ascii	"w, with Log) ---\015\012\000"
 1317      69746820 
 1317      4C6F6729 
 1317      202D2D2D 
 1317      0D0A00
 1318              	.LC26:
 1319 0210 44617461 		.ascii	"Data Mismatch in Full Cycle Test (Output != Input)."
 1319      204D6973 
 1319      6D617463 
 1319      6820696E 
 1319      2046756C 
 1320 0243 00       		.ascii	"\000"
 1321              	.LC28:
 1322 0244 0D0A2D2D 		.ascii	"\015\012--- TEST 2: Memory Integrity Check (Slow) -"
 1322      2D205445 
 1322      53542032 
 1322      3A204D65 
 1322      6D6F7279 
 1323 0271 2D2D0D0A 		.ascii	"--\015\012\000"
 1323      00
 1324 0276 0000     		.space	2
ARM GAS  C:\tmp\cc3X0CVP.s 			page 31


 1325              	.LC30:
 1326 0278 4C617463 		.ascii	"Latch/Memory Failure: Output changed (Expected 0x%0"
 1326      682F4D65 
 1326      6D6F7279 
 1326      20466169 
 1326      6C757265 
 1327 02ab 32582C20 		.ascii	"2X, Got 0x%02X) without RCLK pulse.\000"
 1327      476F7420 
 1327      30782530 
 1327      32582920 
 1327      77697468 
 1328 02cf 00       		.space	1
 1329              	.LC32:
 1330 02d0 4D656D6F 		.ascii	"Memory check OK (Output stable at 0x%02X).\015\012\000"
 1330      72792063 
 1330      6865636B 
 1330      204F4B20 
 1330      284F7574 
 1331 02fd 000000   		.space	3
 1332              	.LC34:
 1333 0300 46696E61 		.ascii	"Final Latch Failure: Expected 0x55 after RCLK.\000"
 1333      6C204C61 
 1333      74636820 
 1333      4661696C 
 1333      7572653A 
 1334 032f 00       		.space	1
 1335              	.LC36:
 1336 0330 46696E61 		.ascii	"Final Latch check OK.\015\012\000"
 1336      6C204C61 
 1336      74636820 
 1336      63686563 
 1336      6B204F4B 
 1337              	.LC38:
 1338 0348 0D0A2D2D 		.ascii	"\015\012--- TEST 3: Software Shift Clock Speed Test"
 1338      2D205445 
 1338      53542033 
 1338      3A20536F 
 1338      66747761 
 1339 0375 202D2D2D 		.ascii	" ---\015\012\000"
 1339      0D0A00
 1340              	.LC40:
 1341 037c 0D0A2121 		.ascii	"\015\012!!! FAILURE at estimated %.1f kHz (Test 0x0"
 1341      21204641 
 1341      494C5552 
 1341      45206174 
 1341      20657374 
 1342 03a9 30292028 		.ascii	"0) (Delay %lu us) !!!\015\012\000"
 1342      44656C61 
 1342      7920256C 
 1342      75207573 
 1342      29202121 
 1343 03c1 000000   		.space	3
 1344              	.LC42:
 1345 03c4 45787065 		.ascii	"Expected\000"
 1345      63746564 
 1345      00
 1346 03cd 000000   		.space	3
ARM GAS  C:\tmp\cc3X0CVP.s 			page 32


 1347              	.LC44:
 1348 03d0 41637475 		.ascii	"Actual\000"
 1348      616C00
 1349 03d7 00       		.space	1
 1350              	.LC46:
 1351 03d8 0D0A2121 		.ascii	"\015\012!!! FAILURE at estimated %.1f kHz (Test 0xF"
 1351      21204641 
 1351      494C5552 
 1351      45206174 
 1351      20657374 
 1352 0405 46292028 		.ascii	"F) (Delay %lu us) !!!\015\012\000"
 1352      44656C61 
 1352      7920256C 
 1352      75207573 
 1352      29202121 
 1353 041d 000000   		.space	3
 1354              	.LC48:
 1355 0420 20203E3E 		.ascii	"  >> Stable at estimated %.1f kHz (Delay %lu us).\015"
 1355      20537461 
 1355      626C6520 
 1355      61742065 
 1355      7374696D 
 1356 0452 0A00     		.ascii	"\012\000"
 1357              	.LC50:
 1358 0454 4D617820 		.ascii	"Max Stable Frequency (ESTIMATED): %.1f kHz (~%.2f M"
 1358      53746162 
 1358      6C652046 
 1358      72657175 
 1358      656E6379 
 1359 0487 487A292E 		.ascii	"Hz).\015\012\000"
 1359      0D0A00
 1360 048e 0000     		.space	2
 1361              	.LC52:
 1362 0490 53706565 		.ascii	"Speed test failed immediately (check connections).\000"
 1362      64207465 
 1362      73742066 
 1362      61696C65 
 1362      6420696D 
 1363 04c3 00       		.space	1
 1364              	.LC54:
 1365 04c4 37344843 		.ascii	"74HC595 PASSED ALL BASIC FUNCTIONAL TESTS.\000"
 1365      35393520 
 1365      50415353 
 1365      45442041 
 1365      4C4C2042 
 1366 04ef 00       		.space	1
 1367              	.LC56:
 1368 04f0 37344843 		.ascii	"74HC595 FAILED TEST.\000"
 1368      35393520 
 1368      4641494C 
 1368      45442054 
 1368      4553542E 
 1369              		.text
 1370              	.Letext0:
 1371              		.file 2 "c:\\program files (x86)\\cypress\\psoc creator\\4.4\\psoc creator\\import\\gnu\\arm\\5.4.
 1372              		.file 3 "c:\\program files (x86)\\cypress\\psoc creator\\4.4\\psoc creator\\import\\gnu\\arm\\5.4.
 1373              		.file 4 "c:\\program files (x86)\\cypress\\psoc creator\\4.4\\psoc creator\\import\\gnu\\arm\\5.4.
ARM GAS  C:\tmp\cc3X0CVP.s 			page 33


 1374              		.file 5 "Generated_Source\\PSoC4/UART_1_SPI_UART.h"
 1375              		.file 6 "Generated_Source\\PSoC4/LED_ERROR.h"
 1376              		.file 7 "Generated_Source\\PSoC4/LED_OK.h"
 1377              		.file 8 "Generated_Source\\PSoC4/SHCP_Pin.h"
 1378              		.file 9 "Generated_Source\\PSoC4/DS_Pin.h"
 1379              		.file 10 "Generated_Source\\PSoC4/STCP_Pin.h"
 1380              		.file 11 "Generated_Source\\PSoC4/Q7_Pin.h"
 1381              		.file 12 "Generated_Source\\PSoC4/Q6_Pin.h"
 1382              		.file 13 "Generated_Source\\PSoC4/Q5_Pin.h"
 1383              		.file 14 "Generated_Source\\PSoC4/Q4_Pin.h"
 1384              		.file 15 "Generated_Source\\PSoC4/Q3_Pin.h"
 1385              		.file 16 "Generated_Source\\PSoC4/Q2_Pin.h"
 1386              		.file 17 "Generated_Source\\PSoC4/Q1_Pin.h"
 1387              		.file 18 "Generated_Source\\PSoC4/Q0_Pin.h"
 1388              		.file 19 "Generated_Source\\PSoC4/UART_1.h"
 1389              		.file 20 "Generated_Source\\PSoC4/MR_Pin.h"
 1390              		.file 21 "Generated_Source\\PSoC4/OE_Pin.h"